target datalayout = "e-m:e-p270:32:32-p271:32:32-p272:64:64-i64:64-i128:128-f80:128-n8:16:32:64-S128"
target triple = "x86_64-pc-linux-gnu"

%"class.std::__cxx11::basic_string" = type { %"struct.std::__cxx11::basic_string<char>::_Alloc_hider", i64, %union.anon }
%"struct.std::__cxx11::basic_string<char>::_Alloc_hider" = type { ptr }
%union.anon = type { i64, [8 x i8] }
%"class.cv::FileStorage::Impl" = type <{ %"class.cv::FileStorage_API", ptr, %"class.std::__cxx11::basic_string", i32, i8, [3 x i8], ptr, ptr, i8, i8, i8, i8, i32, i32, i8, i8, [2 x i8], ptr, i32, [4 x i8], ptr, i32, i32, i32, [4 x i8], %"class.std::deque", %"class.std::vector", i64, %"class.std::deque.3", %"struct.cv::Ptr", %"struct.cv::Ptr.6", %"class.cv::FileStorage::Impl::Base64Decoder", ptr, %"class.std::vector.15", %"class.std::vector.20", %"class.std::vector.25", %"class.std::vector.30", i64, %"class.std::unordered_map", %"class.std::vector", %"class.std::vector", ptr, i64, i64, i32, [4 x i8] }>
%"class.cv::FileStorage_API" = type { ptr }
%"class.std::deque" = type { %"class.std::_Deque_base" }
%"class.std::_Deque_base" = type { %"struct.std::_Deque_base<cv::FStructData, std::allocator<cv::FStructData>>::_Deque_impl" }
%"struct.std::_Deque_base<cv::FStructData, std::allocator<cv::FStructData>>::_Deque_impl" = type { %"struct.std::_Deque_base<cv::FStructData, std::allocator<cv::FStructData>>::_Deque_impl_data" }
%"struct.std::_Deque_base<cv::FStructData, std::allocator<cv::FStructData>>::_Deque_impl_data" = type { ptr, i64, %"struct.std::_Deque_iterator", %"struct.std::_Deque_iterator" }
%"struct.std::_Deque_iterator" = type { ptr, ptr, ptr, ptr }
%"class.std::deque.3" = type { %"class.std::_Deque_base.4" }
%"class.std::_Deque_base.4" = type { %"struct.std::_Deque_base<char, std::allocator<char>>::_Deque_impl" }
%"struct.std::_Deque_base<char, std::allocator<char>>::_Deque_impl" = type { %"struct.std::_Deque_base<char, std::allocator<char>>::_Deque_impl_data" }
%"struct.std::_Deque_base<char, std::allocator<char>>::_Deque_impl_data" = type { ptr, i64, %"struct.std::_Deque_iterator.5", %"struct.std::_Deque_iterator.5" }
%"struct.std::_Deque_iterator.5" = type { ptr, ptr, ptr, ptr }
%"struct.cv::Ptr" = type { %"class.std::shared_ptr" }
%"class.std::shared_ptr" = type { %"class.std::__shared_ptr" }
%"class.std::__shared_ptr" = type { ptr, %"class.std::__shared_count" }
%"class.std::__shared_count" = type { ptr }
%"struct.cv::Ptr.6" = type { %"class.std::shared_ptr.7" }
%"class.std::shared_ptr.7" = type { %"class.std::__shared_ptr.8" }
%"class.std::__shared_ptr.8" = type { ptr, %"class.std::__shared_count" }
%"class.cv::FileStorage::Impl::Base64Decoder" = type <{ %"struct.cv::Ptr.6", ptr, i32, [4 x i8], %"class.std::vector", %"class.std::vector.10", i64, i64, i8, [7 x i8] }>
%"class.std::vector.10" = type { %"struct.std::_Vector_base.11" }
%"struct.std::_Vector_base.11" = type { %"struct.std::_Vector_base<unsigned char, std::allocator<unsigned char>>::_Vector_impl" }
%"struct.std::_Vector_base<unsigned char, std::allocator<unsigned char>>::_Vector_impl" = type { %"struct.std::_Vector_base<unsigned char, std::allocator<unsigned char>>::_Vector_impl_data" }
%"struct.std::_Vector_base<unsigned char, std::allocator<unsigned char>>::_Vector_impl_data" = type { ptr, ptr, ptr }
%"class.std::vector.15" = type { %"struct.std::_Vector_base.16" }
%"struct.std::_Vector_base.16" = type { %"struct.std::_Vector_base<cv::FileNode, std::allocator<cv::FileNode>>::_Vector_impl" }
%"struct.std::_Vector_base<cv::FileNode, std::allocator<cv::FileNode>>::_Vector_impl" = type { %"struct.std::_Vector_base<cv::FileNode, std::allocator<cv::FileNode>>::_Vector_impl_data" }
%"struct.std::_Vector_base<cv::FileNode, std::allocator<cv::FileNode>>::_Vector_impl_data" = type { ptr, ptr, ptr }
%"class.std::vector.20" = type { %"struct.std::_Vector_base.21" }
%"struct.std::_Vector_base.21" = type { %"struct.std::_Vector_base<cv::Ptr<std::vector<unsigned char>>, std::allocator<cv::Ptr<std::vector<unsigned char>>>>::_Vector_impl" }
%"struct.std::_Vector_base<cv::Ptr<std::vector<unsigned char>>, std::allocator<cv::Ptr<std::vector<unsigned char>>>>::_Vector_impl" = type { %"struct.std::_Vector_base<cv::Ptr<std::vector<unsigned char>>, std::allocator<cv::Ptr<std::vector<unsigned char>>>>::_Vector_impl_data" }
%"struct.std::_Vector_base<cv::Ptr<std::vector<unsigned char>>, std::allocator<cv::Ptr<std::vector<unsigned char>>>>::_Vector_impl_data" = type { ptr, ptr, ptr }
%"class.std::vector.25" = type { %"struct.std::_Vector_base.26" }
%"struct.std::_Vector_base.26" = type { %"struct.std::_Vector_base<unsigned char *, std::allocator<unsigned char *>>::_Vector_impl" }
%"struct.std::_Vector_base<unsigned char *, std::allocator<unsigned char *>>::_Vector_impl" = type { %"struct.std::_Vector_base<unsigned char *, std::allocator<unsigned char *>>::_Vector_impl_data" }
%"struct.std::_Vector_base<unsigned char *, std::allocator<unsigned char *>>::_Vector_impl_data" = type { ptr, ptr, ptr }
%"class.std::vector.30" = type { %"struct.std::_Vector_base.31" }
%"struct.std::_Vector_base.31" = type { %"struct.std::_Vector_base<unsigned long, std::allocator<unsigned long>>::_Vector_impl" }
%"struct.std::_Vector_base<unsigned long, std::allocator<unsigned long>>::_Vector_impl" = type { %"struct.std::_Vector_base<unsigned long, std::allocator<unsigned long>>::_Vector_impl_data" }
%"struct.std::_Vector_base<unsigned long, std::allocator<unsigned long>>::_Vector_impl_data" = type { ptr, ptr, ptr }
%"class.std::unordered_map" = type { %"class.std::_Hashtable" }
%"class.std::_Hashtable" = type { ptr, i64, %"struct.std::__detail::_Hash_node_base", i64, %"struct.std::__detail::_Prime_rehash_policy", ptr }
%"struct.std::__detail::_Hash_node_base" = type { ptr }
%"struct.std::__detail::_Prime_rehash_policy" = type { float, i64 }
%"class.std::vector" = type { %"struct.std::_Vector_base" }
%"struct.std::_Vector_base" = type { %"struct.std::_Vector_base<char, std::allocator<char>>::_Vector_impl" }
%"struct.std::_Vector_base<char, std::allocator<char>>::_Vector_impl" = type { %"struct.std::_Vector_base<char, std::allocator<char>>::_Vector_impl_data" }
%"struct.std::_Vector_base<char, std::allocator<char>>::_Vector_impl_data" = type { ptr, ptr, ptr }
%"struct.std::__detail::_Node_const_iterator" = type { %"struct.std::__detail::_Node_iterator_base" }
%"struct.std::__detail::_Node_iterator_base" = type { ptr }
%"struct.std::pair" = type <{ %"class.std::__cxx11::basic_string", i32, [4 x i8] }>
%"struct.std::__detail::_Hash_node_value_base" = type { %"struct.__gnu_cxx::__aligned_buffer" }
%"struct.__gnu_cxx::__aligned_buffer" = type { %"union.std::aligned_storage<40, 8>::type" }
%"union.std::aligned_storage<40, 8>::type" = type { [40 x i8] }

; Function Attrs: mustprogress nounwind uwtable
define linkonce_odr hidden noundef ptr @_ZN9__gnu_cxx16__aligned_bufferISt4pairIKNSt7__cxx1112basic_stringIcSt11char_traitsIcESaIcEEEjEE7_M_addrEv(ptr noundef nonnull align 8 dereferenceable(40) %0) #8 comdat align 2 {
  %2 = alloca ptr, align 8
  store ptr %0, ptr %2, align 8, !tbaa !446
  %3 = load ptr, ptr %2, align 8
  %4 = getelementptr inbounds nuw %"struct.__gnu_cxx::__aligned_buffer", ptr %3, i32 0, i32 0
  ret ptr %4
}

; Function Attrs: mustprogress nounwind uwtable
define linkonce_odr hidden void @_ZNSt8__detail19_Node_iterator_baseISt4pairIKNSt7__cxx1112basic_stringIcSt11char_traitsIcESaIcEEEjELb1EEC2EPNS_10_Hash_nodeIS9_Lb1EEE(ptr noundef nonnull align 8 dereferenceable(8) %0, ptr noundef %1) unnamed_addr #8 comdat align 2 {
  %3 = alloca ptr, align 8
  %4 = alloca ptr, align 8
  store ptr %0, ptr %3, align 8, !tbaa !253
  store ptr %1, ptr %4, align 8, !tbaa !440
  %5 = load ptr, ptr %3, align 8
  %6 = getelementptr inbounds nuw %"struct.std::__detail::_Node_iterator_base", ptr %5, i32 0, i32 0
  %7 = load ptr, ptr %4, align 8, !tbaa !440
  store ptr %7, ptr %6, align 8, !tbaa !255
  ret void
}

; Function Attrs: mustprogress nounwind uwtable
define linkonce_odr hidden noundef ptr @_ZN9__gnu_cxx16__aligned_bufferISt4pairIKNSt7__cxx1112basic_stringIcSt11char_traitsIcESaIcEEEjEE6_M_ptrEv(ptr noundef nonnull align 8 dereferenceable(40) %0) #8 comdat align 2 {
  %2 = alloca ptr, align 8
  store ptr %0, ptr %2, align 8, !tbaa !446
  %3 = load ptr, ptr %2, align 8
  %4 = call noundef ptr @_ZN9__gnu_cxx16__aligned_bufferISt4pairIKNSt7__cxx1112basic_stringIcSt11char_traitsIcESaIcEEEjEE7_M_addrEv(ptr noundef nonnull align 8 dereferenceable(40) %3) #3
  ret ptr %4
}

; Function Attrs: mustprogress nounwind uwtable
define linkonce_odr hidden void @_ZNSt8__detail20_Node_const_iteratorISt4pairIKNSt7__cxx1112basic_stringIcSt11char_traitsIcESaIcEEEjELb0ELb1EEC2EPNS_10_Hash_nodeIS9_Lb1EEE(ptr noundef nonnull align 8 dereferenceable(8) %0, ptr noundef %1) unnamed_addr #8 comdat align 2 {
  %3 = alloca ptr, align 8
  %4 = alloca ptr, align 8
  store ptr %0, ptr %3, align 8, !tbaa !258
  store ptr %1, ptr %4, align 8, !tbaa !440
  %5 = load ptr, ptr %3, align 8
  %6 = load ptr, ptr %4, align 8, !tbaa !440
  call void @_ZNSt8__detail19_Node_iterator_baseISt4pairIKNSt7__cxx1112basic_stringIcSt11char_traitsIcESaIcEEEjELb1EEC2EPNS_10_Hash_nodeIS9_Lb1EEE(ptr noundef nonnull align 8 dereferenceable(8) %5, ptr noundef %6) #3
  ret void
}

; Function Attrs: mustprogress nounwind uwtable
define linkonce_odr hidden noundef ptr @_ZNSt8__detail21_Hash_node_value_baseISt4pairIKNSt7__cxx1112basic_stringIcSt11char_traitsIcESaIcEEEjEE9_M_valptrEv(ptr noundef nonnull align 8 dereferenceable(40) %0) #8 comdat align 2 {
  %2 = alloca ptr, align 8
  store ptr %0, ptr %2, align 8, !tbaa !444
  %3 = load ptr, ptr %2, align 8
  %4 = getelementptr inbounds nuw %"struct.std::__detail::_Hash_node_value_base", ptr %3, i32 0, i32 0
  %5 = call noundef ptr @_ZN9__gnu_cxx16__aligned_bufferISt4pairIKNSt7__cxx1112basic_stringIcSt11char_traitsIcESaIcEEEjEE6_M_ptrEv(ptr noundef nonnull align 8 dereferenceable(40) %4) #3
  ret ptr %5
}

; Function Attrs: mustprogress nounwind uwtable
define linkonce_odr hidden ptr @_ZNKSt10_HashtableINSt7__cxx1112basic_stringIcSt11char_traitsIcESaIcEEESt4pairIKS5_jESaIS8_ENSt8__detail10_Select1stESt8equal_toIS5_ESt4hashIS5_ENSA_18_Mod_range_hashingENSA_20_Default_ranged_hashENSA_20_Prime_rehash_policyENSA_17_Hashtable_traitsILb1ELb0ELb1EEEE3endEv(ptr noundef nonnull align 8 dereferenceable(56) %0) #8 comdat align 2 {
  %2 = alloca %"struct.std::__detail::_Node_const_iterator", align 8
  %3 = alloca ptr, align 8
  store ptr %0, ptr %3, align 8, !tbaa !411
  call void @_ZNSt8__detail20_Node_const_iteratorISt4pairIKNSt7__cxx1112basic_stringIcSt11char_traitsIcESaIcEEEjELb0ELb1EEC2EPNS_10_Hash_nodeIS9_Lb1EEE(ptr noundef nonnull align 8 dereferenceable(8) %2, ptr noundef null) #3
  %4 = getelementptr inbounds nuw %"struct.std::__detail::_Node_const_iterator", ptr %2, i32 0, i32 0
  %5 = getelementptr inbounds nuw %"struct.std::__detail::_Node_iterator_base", ptr %4, i32 0, i32 0
  %6 = load ptr, ptr %5, align 8
  ret ptr %6
}

; Function Attrs: mustprogress nounwind uwtable
define linkonce_odr hidden noundef ptr @_ZNKSt8__detail20_Node_const_iteratorISt4pairIKNSt7__cxx1112basic_stringIcSt11char_traitsIcESaIcEEEjELb0ELb1EEptEv(ptr noundef nonnull align 8 dereferenceable(8) %0) #8 comdat align 2 {
  %2 = alloca ptr, align 8
  store ptr %0, ptr %2, align 8, !tbaa !258
  %3 = load ptr, ptr %2, align 8
  %4 = getelementptr inbounds nuw %"struct.std::__detail::_Node_iterator_base", ptr %3, i32 0, i32 0
  %5 = load ptr, ptr %4, align 8, !tbaa !255
  %6 = getelementptr inbounds i8, ptr %5, i64 8
  %7 = call noundef ptr @_ZNSt8__detail21_Hash_node_value_baseISt4pairIKNSt7__cxx1112basic_stringIcSt11char_traitsIcESaIcEEEjEE9_M_valptrEv(ptr noundef nonnull align 8 dereferenceable(40) %6) #3
  ret ptr %7
}

; Function Attrs: mustprogress nounwind uwtable
define linkonce_odr noundef zeroext i1 @_ZNSt8__detailneERKNS_19_Node_iterator_baseISt4pairIKNSt7__cxx1112basic_stringIcSt11char_traitsIcESaIcEEEjELb1EEESC_(ptr noundef nonnull align 8 dereferenceable(8) %0, ptr noundef nonnull align 8 dereferenceable(8) %1) #8 comdat {
  %3 = alloca ptr, align 8
  %4 = alloca ptr, align 8
  store ptr %0, ptr %3, align 8, !tbaa !253
  store ptr %1, ptr %4, align 8, !tbaa !253
  %5 = load ptr, ptr %3, align 8, !tbaa !253
  %6 = getelementptr inbounds nuw %"struct.std::__detail::_Node_iterator_base", ptr %5, i32 0, i32 0
  %7 = load ptr, ptr %6, align 8, !tbaa !255
  %8 = load ptr, ptr %4, align 8, !tbaa !253
  %9 = getelementptr inbounds nuw %"struct.std::__detail::_Node_iterator_base", ptr %8, i32 0, i32 0
  %10 = load ptr, ptr %9, align 8, !tbaa !255
  %11 = icmp ne ptr %7, %10
  ret i1 %11
}

; Function Attrs: mustprogress nounwind uwtable
define linkonce_odr hidden ptr @_ZNKSt13unordered_mapINSt7__cxx1112basic_stringIcSt11char_traitsIcESaIcEEEjSt4hashIS5_ESt8equal_toIS5_ESaISt4pairIKS5_jEEE3endEv(ptr noundef nonnull align 8 dereferenceable(56) %0) #8 comdat align 2 {
  %2 = alloca %"struct.std::__detail::_Node_const_iterator", align 8
  %3 = alloca ptr, align 8
  store ptr %0, ptr %3, align 8, !tbaa !147
  %4 = load ptr, ptr %3, align 8
  %5 = getelementptr inbounds nuw %"class.std::unordered_map", ptr %4, i32 0, i32 0
  %6 = call ptr @_ZNKSt10_HashtableINSt7__cxx1112basic_stringIcSt11char_traitsIcESaIcEEESt4pairIKS5_jESaIS8_ENSt8__detail10_Select1stESt8equal_toIS5_ESt4hashIS5_ENSA_18_Mod_range_hashingENSA_20_Default_ranged_hashENSA_20_Prime_rehash_policyENSA_17_Hashtable_traitsILb1ELb0ELb1EEEE3endEv(ptr noundef nonnull align 8 dereferenceable(56) %5) #3
  %7 = getelementptr inbounds nuw %"struct.std::__detail::_Node_const_iterator", ptr %2, i32 0, i32 0
  %8 = getelementptr inbounds nuw %"struct.std::__detail::_Node_iterator_base", ptr %7, i32 0, i32 0
  store ptr %6, ptr %8, align 8
  %9 = getelementptr inbounds nuw %"struct.std::__detail::_Node_const_iterator", ptr %2, i32 0, i32 0
  %10 = getelementptr inbounds nuw %"struct.std::__detail::_Node_iterator_base", ptr %9, i32 0, i32 0
  %11 = load ptr, ptr %10, align 8
  ret ptr %11
}

; Function Attrs: mustprogress uwtable
define linkonce_odr hidden ptr @_ZNKSt13unordered_mapINSt7__cxx1112basic_stringIcSt11char_traitsIcESaIcEEEjSt4hashIS5_ESt8equal_toIS5_ESaISt4pairIKS5_jEEE4findERSB_(ptr noundef nonnull align 8 dereferenceable(56) %0, ptr noundef nonnull align 8 dereferenceable(32) %1) #4 comdat align 2 {
  %3 = alloca %"struct.std::__detail::_Node_const_iterator", align 8
  %4 = alloca ptr, align 8
  %5 = alloca ptr, align 8
  store ptr %0, ptr %4, align 8, !tbaa !147
  store ptr %1, ptr %5, align 8, !tbaa !34
  %6 = load ptr, ptr %4, align 8
  %7 = getelementptr inbounds nuw %"class.std::unordered_map", ptr %6, i32 0, i32 0
  %8 = load ptr, ptr %5, align 8, !tbaa !34
  %9 = call ptr @_ZNKSt10_HashtableINSt7__cxx1112basic_stringIcSt11char_traitsIcESaIcEEESt4pairIKS5_jESaIS8_ENSt8__detail10_Select1stESt8equal_toIS5_ESt4hashIS5_ENSA_18_Mod_range_hashingENSA_20_Default_ranged_hashENSA_20_Prime_rehash_policyENSA_17_Hashtable_traitsILb1ELb0ELb1EEEE4findERS7_(ptr noundef nonnull align 8 dereferenceable(56) %7, ptr noundef nonnull align 8 dereferenceable(32) %8)
  %10 = getelementptr inbounds nuw %"struct.std::__detail::_Node_const_iterator", ptr %3, i32 0, i32 0
  %11 = getelementptr inbounds nuw %"struct.std::__detail::_Node_iterator_base", ptr %10, i32 0, i32 0
  store ptr %9, ptr %11, align 8
  %12 = getelementptr inbounds nuw %"struct.std::__detail::_Node_const_iterator", ptr %3, i32 0, i32 0
  %13 = getelementptr inbounds nuw %"struct.std::__detail::_Node_iterator_base", ptr %12, i32 0, i32 0
  %14 = load ptr, ptr %13, align 8
  ret ptr %14
}

; Function Attrs: mustprogress uwtable
define noundef i32 @_ZNK2cv11FileStorage4Impl12getStringOfsERKNSt7__cxx1112basic_stringIcSt11char_traitsIcESaIcEEE(ptr noundef nonnull align 8 dereferenceable(700) %0, ptr noundef nonnull align 8 dereferenceable(32) %1) #4 align 2 {
  %3 = alloca ptr, align 8
  %4 = alloca ptr, align 8
  %5 = alloca %"struct.std::__detail::_Node_const_iterator", align 8
  %6 = alloca %"struct.std::__detail::_Node_const_iterator", align 8
  store ptr %0, ptr %3, align 8, !tbaa !38
  store ptr %1, ptr %4, align 8, !tbaa !34
  %7 = load ptr, ptr %3, align 8
  call void @llvm.lifetime.start.p0(i64 8, ptr %5) #3
  %8 = getelementptr inbounds nuw %"class.cv::FileStorage::Impl", ptr %7, i32 0, i32 38
  %9 = load ptr, ptr %4, align 8, !tbaa !34
  %10 = call ptr @_ZNKSt13unordered_mapINSt7__cxx1112basic_stringIcSt11char_traitsIcESaIcEEEjSt4hashIS5_ESt8equal_toIS5_ESaISt4pairIKS5_jEEE4findERSB_(ptr noundef nonnull align 8 dereferenceable(56) %8, ptr noundef nonnull align 8 dereferenceable(32) %9)
  %11 = getelementptr inbounds nuw %"struct.std::__detail::_Node_const_iterator", ptr %5, i32 0, i32 0
  %12 = getelementptr inbounds nuw %"struct.std::__detail::_Node_iterator_base", ptr %11, i32 0, i32 0
  store ptr %10, ptr %12, align 8
  call void @llvm.lifetime.start.p0(i64 8, ptr %6) #3
  %13 = getelementptr inbounds nuw %"class.cv::FileStorage::Impl", ptr %7, i32 0, i32 38
  %14 = call ptr @_ZNKSt13unordered_mapINSt7__cxx1112basic_stringIcSt11char_traitsIcESaIcEEEjSt4hashIS5_ESt8equal_toIS5_ESaISt4pairIKS5_jEEE3endEv(ptr noundef nonnull align 8 dereferenceable(56) %13) #3
  %15 = getelementptr inbounds nuw %"struct.std::__detail::_Node_const_iterator", ptr %6, i32 0, i32 0
  %16 = getelementptr inbounds nuw %"struct.std::__detail::_Node_iterator_base", ptr %15, i32 0, i32 0
  store ptr %14, ptr %16, align 8
  %17 = call noundef zeroext i1 @_ZNSt8__detailneERKNS_19_Node_iterator_baseISt4pairIKNSt7__cxx1112basic_stringIcSt11char_traitsIcESaIcEEEjELb1EEESC_(ptr noundef nonnull align 8 dereferenceable(8) %5, ptr noundef nonnull align 8 dereferenceable(8) %6) #3
  br i1 %17, label %18, label %22

18:                                               ; preds = %2
  %19 = call noundef ptr @_ZNKSt8__detail20_Node_const_iteratorISt4pairIKNSt7__cxx1112basic_stringIcSt11char_traitsIcESaIcEEEjELb0ELb1EEptEv(ptr noundef nonnull align 8 dereferenceable(8) %5) #3
  %20 = getelementptr inbounds nuw %"struct.std::pair", ptr %19, i32 0, i32 1
  %21 = load i32, ptr %20, align 8, !tbaa !251
  br label %23

22:                                               ; preds = %2
  br label %23

23:                                               ; preds = %22, %18
  %24 = phi i32 [ %21, %18 ], [ 0, %22 ]
  call void @llvm.lifetime.end.p0(i64 8, ptr %6) #3
  call void @llvm.lifetime.end.p0(i64 8, ptr %5) #3
  ret i32 %24
}